target datalayout = "e-m:e-p270:32:32-p271:32:32-p272:64:64-i64:64-i128:128-f80:128-n8:16:32:64-S128"
target triple = "x86_64-pc-linux-gnu"

%"class.fmt::v11::basic_string_view" = type { ptr, i64 }
%"class.std::system_error" = type { %"class.std::runtime_error", %"class.std::error_code" }
%"class.std::runtime_error" = type { %"class.std::exception", %"struct.std::__cow_string" }
%"class.std::exception" = type { ptr }
%"struct.std::__cow_string" = type { %union.anon }
%union.anon = type { ptr }
%"class.std::error_code" = type { i32, ptr }
%"struct.fmt::v11::fstring.0" = type { %"class.fmt::v11::basic_string_view" }
%struct.FMT_COMPILE_STRING.36 = type { i8 }
%class.anon.37 = type { i8 }

@_ZTISt12system_error = external constant ptr
@.str.55 = private unnamed_addr constant [28 x i8] c"cannot get memory page size\00", align 1
@__const.fstring.sv.70 = private unnamed_addr constant %"class.fmt::v11::basic_string_view" { ptr @.str.55, i64 27 }, align 8

; Function Attrs: mustprogress nounwind uwtable
define linkonce_odr hidden void @_ZN3fmt3v1117basic_string_viewIcEC2EPKcm(ptr noundef nonnull align 8 dereferenceable(16) %0, ptr noundef %1, i64 noundef %2) unnamed_addr #0 comdat align 2 {
  %4 = alloca ptr, align 8
  %5 = alloca ptr, align 8
  %6 = alloca i64, align 8
  store ptr %0, ptr %4, align 8, !tbaa !127
  store ptr %1, ptr %5, align 8, !tbaa !14
  store i64 %2, ptr %6, align 8, !tbaa !25
  %7 = load ptr, ptr %4, align 8
  %8 = getelementptr inbounds nuw %"class.fmt::v11::basic_string_view", ptr %7, i32 0, i32 0
  %9 = load ptr, ptr %5, align 8, !tbaa !14
  store ptr %9, ptr %8, align 8, !tbaa !129
  %10 = getelementptr inbounds nuw %"class.fmt::v11::basic_string_view", ptr %7, i32 0, i32 1
  %11 = load i64, ptr %6, align 8, !tbaa !25
  store i64 %11, ptr %10, align 8, !tbaa !131
  ret void
}

; Function Attrs: mustprogress nounwind uwtable
define linkonce_odr hidden noundef i32 @_ZNSt11char_traitsIcE11to_int_typeERKc(ptr noundef nonnull align 1 dereferenceable(1) %0) #0 comdat align 2 {
  %2 = alloca ptr, align 8
  store ptr %0, ptr %2, align 8, !tbaa !14
  %3 = load ptr, ptr %2, align 8, !tbaa !14
  %4 = load i8, ptr %3, align 1, !tbaa !132
  %5 = zext i8 %4 to i32
  ret i32 %5
}

; Function Attrs: mustprogress nounwind uwtable
define linkonce_odr hidden { ptr, i64 } @_ZN3fmt3v116detail22compile_string_to_viewIcLm28EEENS0_17basic_string_viewIT_EERAT0__KS4_(ptr noundef nonnull align 1 dereferenceable(28) %0) #0 comdat {
  %2 = alloca %"class.fmt::v11::basic_string_view", align 8
  %3 = alloca ptr, align 8
  store ptr %0, ptr %3, align 8, !tbaa !14
  %4 = load ptr, ptr %3, align 8, !tbaa !14
  %5 = getelementptr inbounds [28 x i8], ptr %4, i64 0, i64 0
  %6 = load ptr, ptr %3, align 8, !tbaa !14
  %7 = getelementptr inbounds nuw [28 x i8], ptr %6, i64 0, i64 27
  %8 = call noundef i32 @_ZNSt11char_traitsIcE11to_int_typeERKc(ptr noundef nonnull align 1 dereferenceable(1) %7) #27
  %9 = icmp eq i32 %8, 0
  %10 = select i1 %9, i32 1, i32 0
  %11 = sext i32 %10 to i64
  %12 = sub i64 28, %11
  call void @_ZN3fmt3v1117basic_string_viewIcEC2EPKcm(ptr noundef nonnull align 8 dereferenceable(16) %2, ptr noundef %5, i64 noundef %12) #27
  %13 = load { ptr, i64 }, ptr %2, align 8
  ret { ptr, i64 } %13
}

; Function Attrs: mustprogress nounwind uwtable
define linkonce_odr hidden void @_ZN3fmt3v116detail13ignore_unusedIJiEEEvDpRKT_(ptr noundef nonnull align 4 dereferenceable(4) %0) #0 comdat {
  %2 = alloca ptr, align 8
  store ptr %0, ptr %2, align 8, !tbaa !60
  ret void
}

; Function Attrs: mustprogress nounwind uwtable
define linkonce_odr hidden void @_ZN3fmt3v116detail13ignore_unusedIJNS0_17basic_string_viewIcEEEEEvDpRKT_(ptr noundef nonnull align 8 dereferenceable(16) %0) #0 comdat {
  %2 = alloca ptr, align 8
  store ptr %0, ptr %2, align 8, !tbaa !127
  ret void
}

; Function Attrs: mustprogress uwtable
define internal { ptr, i64 } @"_ZZZN3fmt3v1111getpagesizeEvENK3$_0clEvENK18FMT_COMPILE_STRINGcvNS0_17basic_string_viewIcEEEv"(ptr noundef nonnull align 1 dereferenceable(1) %0) #5 align 2 {
  %2 = alloca %"class.fmt::v11::basic_string_view", align 8
  %3 = alloca ptr, align 8
  store ptr %0, ptr %3, align 8, !tbaa !87
  %4 = call { ptr, i64 } @_ZN3fmt3v116detail22compile_string_to_viewIcLm28EEENS0_17basic_string_viewIT_EERAT0__KS4_(ptr noundef nonnull align 1 dereferenceable(28) @.str.55)
  %5 = getelementptr inbounds nuw { ptr, i64 }, ptr %2, i32 0, i32 0
  %6 = extractvalue { ptr, i64 } %4, 0
  store ptr %6, ptr %5, align 8
  %7 = getelementptr inbounds nuw { ptr, i64 }, ptr %2, i32 0, i32 1
  %8 = extractvalue { ptr, i64 } %4, 1
  store i64 %8, ptr %7, align 8
  %9 = load { ptr, i64 }, ptr %2, align 8
  ret { ptr, i64 } %9
}

; Function Attrs: alwaysinline mustprogress uwtable
define internal void @"_ZN3fmt3v117fstringIJEEC2IZZNS0_11getpagesizeEvENK3$_0clEvE18FMT_COMPILE_STRINGTnNSt9enable_ifIXaasr3std10is_base_ofINS0_6detail14compile_stringET_EE5valuesr3std7is_sameINS9_9char_typeEcEE5valueEiE4typeELi0EEERKS9_"(ptr noundef nonnull align 8 dereferenceable(16) %0, ptr noundef nonnull align 1 dereferenceable(1) %1) unnamed_addr #8 align 2 {
  %3 = alloca ptr, align 8
  %4 = alloca ptr, align 8
  %5 = alloca %struct.FMT_COMPILE_STRING.36, align 1
  %6 = alloca %"class.fmt::v11::basic_string_view", align 8
  %7 = alloca i32, align 4
  store ptr %0, ptr %3, align 8, !tbaa !32
  store ptr %1, ptr %4, align 8, !tbaa !87
  %8 = load ptr, ptr %3, align 8
  call void @llvm.lifetime.start.p0(i64 1, ptr %5) #27
  %9 = call { ptr, i64 } @"_ZZZN3fmt3v1111getpagesizeEvENK3$_0clEvENK18FMT_COMPILE_STRINGcvNS0_17basic_string_viewIcEEEv"(ptr noundef nonnull align 1 dereferenceable(1) %5)
  %10 = getelementptr inbounds nuw { ptr, i64 }, ptr %8, i32 0, i32 0
  %11 = extractvalue { ptr, i64 } %9, 0
  store ptr %11, ptr %10, align 8
  %12 = getelementptr inbounds nuw { ptr, i64 }, ptr %8, i32 0, i32 1
  %13 = extractvalue { ptr, i64 } %9, 1
  store i64 %13, ptr %12, align 8
  call void @llvm.lifetime.end.p0(i64 1, ptr %5) #27
  call void @llvm.lifetime.start.p0(i64 16, ptr %6) #27
  call void @llvm.memcpy.p0.p0.i64(ptr align 8 %6, ptr align 8 @__const.fstring.sv.70, i64 16, i1 false)
  call void @llvm.lifetime.start.p0(i64 4, ptr %7) #27
  store i32 0, ptr %7, align 4, !tbaa !12
  call void @_ZN3fmt3v116detail13ignore_unusedIJiEEEvDpRKT_(ptr noundef nonnull align 4 dereferenceable(4) %7)
  call void @llvm.lifetime.end.p0(i64 4, ptr %7) #27
  call void @llvm.lifetime.end.p0(i64 16, ptr %6) #27
  ret void
}

; Function Attrs: inlinehint mustprogress uwtable
define internal void @"_ZZN3fmt3v1111getpagesizeEvENK3$_0clEv"(ptr noundef nonnull align 1 dereferenceable(1) %0) #7 align 2 {
  %2 = alloca ptr, align 8
  %3 = alloca %"class.fmt::v11::basic_string_view", align 8
  %4 = alloca %struct.FMT_COMPILE_STRING.36, align 1
  store ptr %0, ptr %2, align 8, !tbaa !27
  call void @llvm.lifetime.start.p0(i64 16, ptr %3) #27
  call void @llvm.lifetime.start.p0(i64 1, ptr %4) #27
  %5 = call { ptr, i64 } @"_ZZZN3fmt3v1111getpagesizeEvENK3$_0clEvENK18FMT_COMPILE_STRINGcvNS0_17basic_string_viewIcEEEv"(ptr noundef nonnull align 1 dereferenceable(1) %4)
  %6 = getelementptr inbounds nuw { ptr, i64 }, ptr %3, i32 0, i32 0
  %7 = extractvalue { ptr, i64 } %5, 0
  store ptr %7, ptr %6, align 8
  %8 = getelementptr inbounds nuw { ptr, i64 }, ptr %3, i32 0, i32 1
  %9 = extractvalue { ptr, i64 } %5, 1
  store i64 %9, ptr %8, align 8
  call void @_ZN3fmt3v116detail13ignore_unusedIJNS0_17basic_string_viewIcEEEEEvDpRKT_(ptr noundef nonnull align 8 dereferenceable(16) %3)
  call void @llvm.lifetime.end.p0(i64 1, ptr %4) #27
  call void @llvm.lifetime.end.p0(i64 16, ptr %3) #27
  ret void
}

; Function Attrs: mustprogress uwtable
define hidden noundef i64 @_ZN3fmt3v1111getpagesizeEv() #5 personality ptr @__gxx_personality_v0 {
  %1 = alloca i64, align 8
  %2 = alloca %"struct.fmt::v11::fstring.0", align 8
  %3 = alloca %struct.FMT_COMPILE_STRING.36, align 1
  %4 = alloca %class.anon.37, align 1
  %5 = alloca ptr, align 8
  %6 = alloca i32, align 4
  %7 = alloca i1, align 1
  call void @llvm.lifetime.start.p0(i64 8, ptr %1) #27
  %8 = call i64 @sysconf(i32 noundef 30) #27
  store i64 %8, ptr %1, align 8, !tbaa !25
  %9 = load i64, ptr %1, align 8, !tbaa !25
  %10 = icmp slt i64 %9, 0
  br i1 %10, label %11, label %29

11:                                               ; preds = %0
  store i1 true, ptr %7, align 1
  %12 = call ptr @__cxa_allocate_exception(i64 32) #27
  %13 = call ptr @__errno_location() #26
  %14 = load i32, ptr %13, align 4, !tbaa !12
  call void @llvm.lifetime.start.p0(i64 1, ptr %3) #27
  call void @llvm.lifetime.start.p0(i64 1, ptr %4) #27
  invoke void @"_ZZN3fmt3v1111getpagesizeEvENK3$_0clEv"(ptr noundef nonnull align 1 dereferenceable(1) %4)
          to label %15 unwind label %22

15:                                               ; preds = %11
  invoke void @"_ZN3fmt3v117fstringIJEEC2IZZNS0_11getpagesizeEvENK3$_0clEvE18FMT_COMPILE_STRINGTnNSt9enable_ifIXaasr3std10is_base_ofINS0_6detail14compile_stringET_EE5valuesr3std7is_sameINS9_9char_typeEcEE5valueEiE4typeELi0EEERKS9_"(ptr noundef nonnull align 8 dereferenceable(16) %2, ptr noundef nonnull align 1 dereferenceable(1) %3)
          to label %16 unwind label %22

16:                                               ; preds = %15
  %17 = getelementptr inbounds nuw { ptr, i64 }, ptr %2, i32 0, i32 0
  %18 = load ptr, ptr %17, align 8
  %19 = getelementptr inbounds nuw { ptr, i64 }, ptr %2, i32 0, i32 1
  %20 = load i64, ptr %19, align 8
  invoke void @_ZN3fmt3v1112system_errorIJEEESt12system_erroriNS0_7fstringIJDpT_EE1tEDpOS4_(ptr dead_on_unwind writable sret(%"class.std::system_error") align 8 %12, i32 noundef %14, ptr %18, i64 %20)
          to label %21 unwind label %22

21:                                               ; preds = %16
  store i1 false, ptr %7, align 1
  invoke void @__cxa_throw(ptr %12, ptr @_ZTISt12system_error, ptr @_ZNSt12system_errorD1Ev) #29
          to label %36 unwind label %22

22:                                               ; preds = %21, %16, %15, %11
  %23 = landingpad { ptr, i32 }
          cleanup
  %24 = extractvalue { ptr, i32 } %23, 0
  store ptr %24, ptr %5, align 8
  %25 = extractvalue { ptr, i32 } %23, 1
  store i32 %25, ptr %6, align 4
  call void @llvm.lifetime.end.p0(i64 1, ptr %4) #27
  call void @llvm.lifetime.end.p0(i64 1, ptr %3) #27
  %26 = load i1, ptr %7, align 1
  br i1 %26, label %27, label %28

27:                                               ; preds = %22
  call void @__cxa_free_exception(ptr %12) #27
  br label %28

28:                                               ; preds = %27, %22
  call void @llvm.lifetime.end.p0(i64 8, ptr %1) #27
  br label %31

29:                                               ; preds = %0
  %30 = load i64, ptr %1, align 8, !tbaa !25
  call void @llvm.lifetime.end.p0(i64 8, ptr %1) #27
  ret i64 %30

31:                                               ; preds = %28
  %32 = load ptr, ptr %5, align 8
  %33 = load i32, ptr %6, align 4
  %34 = insertvalue { ptr, i32 } poison, ptr %32, 0
  %35 = insertvalue { ptr, i32 } %34, i32 %33, 1
  resume { ptr, i32 } %35

36:                                               ; preds = %21
  unreachable
}