; Function Attrs: mustprogress uwtable
define hidden noundef range(i64 0, -9223372036854775808) i64 @_ZN3fmt3v1111getpagesizeEv() local_unnamed_addr #5 personality ptr @__gxx_personality_v0 {
  %1 = tail call i64 @sysconf(i32 noundef 30) #32
  %2 = icmp slt i64 %1, 0
  br i1 %2, label %3, label %10

3:                                                ; preds = %0
  %4 = tail call ptr @__cxa_allocate_exception(i64 32) #32
  %5 = tail call ptr @__errno_location() #31
  %6 = load i32, ptr %5, align 4, !tbaa !10
  invoke void @_ZN3fmt3v1112system_errorIJEEESt12system_erroriNS0_7fstringIJDpT_EE1tEDpOS4_(ptr dead_on_unwind writable sret(%"class.std::system_error") align 8 %4, i32 noundef %6, ptr nonnull @.str.55, i64 27)
          to label %7 unwind label %8

7:                                                ; preds = %3
  tail call void @__cxa_throw(ptr %4, ptr nonnull @_ZTISt12system_error, ptr nonnull @_ZNSt12system_errorD1Ev) #35
  unreachable

8:                                                ; preds = %3
  %9 = landingpad { ptr, i32 }
          cleanup
  tail call void @__cxa_free_exception(ptr %4) #32
  resume { ptr, i32 } %9

10:                                               ; preds = %0
  ret i64 %1
}